
C:/Users/EE-BUMEMS04/Desktop/ee443_final_son/main.axf:     file format elf32-littlearm


Disassembly of section .text:

00000000 <__cs3_interrupt_vector>:
       0:	18 f0 9f e5 18 f0 9f e5 18 f0 9f e5 18 f0 9f e5     ................
      10:	18 f0 9f e5 18 f0 9f e5 18 f0 9f e5 18 f0 9f e5     ................
      20:	40 00 00 00 20 0c 00 00 24 0c 00 00 28 0c 00 00     @... ...$...(...
      30:	2c 0c 00 00 f4 4c 00 00 94 0d 00 00 30 0c 00 00     ,....L......0...

00000040 <__cs3_reset>:
      40:	ea000026 	b	e0 <__cs3_start_asm_sim>

00000044 <__cs3_start_c>:
      44:	e59f608c 	ldr	r6, [pc, #140]	; d8 <__cs3_start_c+0x94>
      48:	e3560000 	cmp	r6, #0
      4c:	e92d4080 	push	{r7, lr}
      50:	e2466001 	sub	r6, r6, #1
      54:	0a00001e 	beq	d4 <__cs3_start_c+0x90>
      58:	e59f507c 	ldr	r5, [pc, #124]	; dc <__cs3_start_c+0x98>
      5c:	e3a00000 	mov	r0, #0
      60:	e3a01000 	mov	r1, #0
      64:	e515200c 	ldr	r2, [r5, #-12]
      68:	e515e010 	ldr	lr, [r5, #-16]
      6c:	e5154008 	ldr	r4, [r5, #-8]
      70:	e15e0002 	cmp	lr, r2
      74:	00822004 	addeq	r2, r2, r4
      78:	0a000009 	beq	a4 <__cs3_start_c+0x60>
      7c:	e3540000 	cmp	r4, #0
      80:	0a000007 	beq	a4 <__cs3_start_c+0x60>
      84:	e1a07002 	mov	r7, r2
      88:	e1a0c002 	mov	r12, r2
      8c:	e8be000c 	ldm	lr!, {r2, r3}
      90:	e8ac000c 	stmia	r12!, {r2, r3}
      94:	e067300c 	rsb	r3, r7, r12
      98:	e1540003 	cmp	r4, r3
      9c:	e1a0200c 	mov	r2, r12
      a0:	1afffff9 	bne	8c <__cs3_start_c+0x48>
      a4:	e515e004 	ldr	lr, [r5, #-4]
      a8:	e35e0000 	cmp	lr, #0
      ac:	11a03002 	movne	r3, r2
      b0:	0a000003 	beq	c4 <__cs3_start_c+0x80>
      b4:	e8a30003 	stmia	r3!, {r0, r1}
      b8:	e062c003 	rsb	r12, r2, r3
      bc:	e15e000c 	cmp	lr, r12
      c0:	1afffffb 	bne	b4 <__cs3_start_c+0x70>
      c4:	e2466001 	sub	r6, r6, #1
      c8:	e3760001 	cmn	r6, #1
      cc:	e2855014 	add	r5, r5, #20
      d0:	1affffe3 	bne	64 <__cs3_start_c+0x20>
      d4:	eb0012d1 	bl	4c20 <__cs3_premain>
      d8:	00000001 	.word	0x00000001
      dc:	00083e3c 	.word	0x00083e3c

000000e0 <__cs3_start_asm_sim>:
      e0:	e28f103c 	add	r1, pc, #60	; 0x3c
      e4:	e3a00016 	mov	r0, #22
      e8:	ef123456 	svc	0x00123456
      ec:	e3500000 	cmp	r0, #0
      f0:	ba000008 	blt	118 <__cs3_start_asm_sim+0x38>
      f4:	e59f2028 	ldr	r2, [pc, #40]	; 124 <__cs3_heap_start_ptr>
      f8:	e59fd01c 	ldr	sp, [pc, #28]	; 11c <__cs3_start_asm_sim+0x3c>
      fc:	e5920008 	ldr	r0, [r2, #8]
     100:	e3500000 	cmp	r0, #0
     104:	11a0d000 	movne	sp, r0
     108:	e59f1010 	ldr	r1, [pc, #16]	; 120 <__cs3_start_asm_sim+0x40>
     10c:	e5920004 	ldr	r0, [r2, #4]
     110:	e3500000 	cmp	r0, #0
     114:	15810000 	strne	r0, [r1]
     118:	eaffffc9 	b	44 <__cs3_start_c>
     11c:	3ffffffc 	.word	0x3ffffffc
     120:	000a9e90 	.word	0x000a9e90

00000124 <__cs3_heap_start_ptr>:
     124:	00220ef8 	.word	0x00220ef8

00000128 <_start>:
     128:	e51fd000 	ldr	sp, [pc, #-0]	; 130 <_start+0x8>
     12c:	eaffffc4 	b	44 <__cs3_start_c>
     130:	3ffffffc 	.word	0x3ffffffc

00000134 <deregister_tm_clones>:
     134:	e92d4008 	push	{r3, lr}
     138:	e59f002c 	ldr	r0, [pc, #44]	; 16c <deregister_tm_clones+0x38>
     13c:	e59f302c 	ldr	r3, [pc, #44]	; 170 <deregister_tm_clones+0x3c>
     140:	e0603003 	rsb	r3, r0, r3
     144:	e3530006 	cmp	r3, #6
     148:	8a000001 	bhi	154 <deregister_tm_clones+0x20>
     14c:	e8bd4008 	pop	{r3, lr}
     150:	e12fff1e 	bx	lr
     154:	e59f3018 	ldr	r3, [pc, #24]	; 174 <deregister_tm_clones+0x40>
     158:	e3530000 	cmp	r3, #0
     15c:	0afffffa 	beq	14c <deregister_tm_clones+0x18>
     160:	e1a0e00f 	mov	lr, pc
     164:	e12fff13 	bx	r3
     168:	eafffff7 	b	14c <deregister_tm_clones+0x18>
     16c:	000a9e98 	.word	0x000a9e98
     170:	000a9e9b 	.word	0x000a9e9b
     174:	00000000 	.word	0x00000000

00000178 <register_tm_clones>:
     178:	e92d4008 	push	{r3, lr}
     17c:	e59f0034 	ldr	r0, [pc, #52]	; 1b8 <register_tm_clones+0x40>
     180:	e59f3034 	ldr	r3, [pc, #52]	; 1bc <register_tm_clones+0x44>
     184:	e0603003 	rsb	r3, r0, r3
     188:	e1a03143 	asr	r3, r3, #2
     18c:	e0833fa3 	add	r3, r3, r3, lsr #31
     190:	e1b010c3 	asrs	r1, r3, #1
     194:	1a000001 	bne	1a0 <register_tm_clones+0x28>
     198:	e8bd4008 	pop	{r3, lr}
     19c:	e12fff1e 	bx	lr
     1a0:	e59f2018 	ldr	r2, [pc, #24]	; 1c0 <register_tm_clones+0x48>
     1a4:	e3520000 	cmp	r2, #0
     1a8:	0afffffa 	beq	198 <register_tm_clones+0x20>
     1ac:	e1a0e00f 	mov	lr, pc
     1b0:	e12fff12 	bx	r2
     1b4:	eafffff7 	b	198 <register_tm_clones+0x20>
     1b8:	000a9e98 	.word	0x000a9e98
     1bc:	000a9e98 	.word	0x000a9e98
     1c0:	00000000 	.word	0x00000000

000001c4 <__do_global_dtors_aux>:
     1c4:	e92d4010 	push	{r4, lr}
     1c8:	e59f402c 	ldr	r4, [pc, #44]	; 1fc <__do_global_dtors_aux+0x38>
     1cc:	e5d43000 	ldrb	r3, [r4]
     1d0:	e3530000 	cmp	r3, #0
     1d4:	1a000006 	bne	1f4 <__do_global_dtors_aux+0x30>
     1d8:	ebffffd5 	bl	134 <deregister_tm_clones>
     1dc:	e59f301c 	ldr	r3, [pc, #28]	; 200 <__do_global_dtors_aux+0x3c>
     1e0:	e3530000 	cmp	r3, #0
     1e4:	159f0018 	ldrne	r0, [pc, #24]	; 204 <__do_global_dtors_aux+0x40>
     1e8:	1320f000 	nopne	{0}
     1ec:	e3a03001 	mov	r3, #1
     1f0:	e5c43000 	strb	r3, [r4]
     1f4:	e8bd4010 	pop	{r4, lr}
     1f8:	e12fff1e 	bx	lr
     1fc:	000a9e98 	.word	0x000a9e98
     200:	00000000 	.word	0x00000000
     204:	00004d90 	.word	0x00004d90

00000208 <frame_dummy>:
     208:	e92d4008 	push	{r3, lr}
     20c:	e59f3034 	ldr	r3, [pc, #52]	; 248 <frame_dummy+0x40>
     210:	e3530000 	cmp	r3, #0
     214:	159f0030 	ldrne	r0, [pc, #48]	; 24c <frame_dummy+0x44>
     218:	159f1030 	ldrne	r1, [pc, #48]	; 250 <frame_dummy+0x48>
     21c:	1320f000 	nopne	{0}
     220:	e59f002c 	ldr	r0, [pc, #44]	; 254 <frame_dummy+0x4c>
     224:	e5903000 	ldr	r3, [r0]
     228:	e3530000 	cmp	r3, #0
     22c:	0a000003 	beq	240 <frame_dummy+0x38>
     230:	e59f3020 	ldr	r3, [pc, #32]	; 258 <frame_dummy+0x50>
     234:	e3530000 	cmp	r3, #0
     238:	11a0e00f 	movne	lr, pc
     23c:	112fff13 	bxne	r3
     240:	e8bd4008 	pop	{r3, lr}
     244:	eaffffcb 	b	178 <register_tm_clones>
     248:	00000000 	.word	0x00000000
     24c:	00004d90 	.word	0x00004d90
     250:	000a9e9c 	.word	0x000a9e9c
     254:	00083e40 	.word	0x00083e40
     258:	00000000 	.word	0x00000000

0000025c <min>:
}

uint16_t min(uint16_t a, uint16_t b)
{
	return (a > b) ? b : a;
}
     25c:	e1510000 	cmp	r1, r0
     260:	31a00001 	movcc	r0, r1
     264:	e12fff1e 	bx	lr

00000268 <noiseDitherFilter>:

void noiseDitherFilter(uint16_t image_map[][320],float output[][320])
{
     268:	e92d4ff0 	push	{r4, r5, r6, r7, r8, r9, r10, r11, lr}
     26c:	e24dd00c 	sub	sp, sp, #12
     270:	e58d0004 	str	r0, [sp, #4]
     274:	e1a0b001 	mov	r11, r1
	int x,y,z,k;
	for (x=0; x<VGA_Y_SIZE; x++) 
	{
    	for (y=0; y<VGA_X_SIZE; y++) 
		{
			output[x][y] = (rand() % 0xFFFF - (0xFFFF-image_map[x][y])) < 0 ? 0x0000 : 0xFFFF;
     278:	e3a09000 	mov	r9, #0
     27c:	e3087001 	movw	r7, #32769	; 0x8001
     280:	e3487000 	movt	r7, #32768	; 0x8000
     284:	e3a08cff 	mov	r8, #65280	; 0xff00
     288:	e344877f 	movt	r8, #18303	; 0x477f
     28c:	e3a0a000 	mov	r10, #0
     290:	ea000014 	b	2e8 <noiseDitherFilter+0x80>
     294:	eb001043 	bl	43a8 <rand>
     298:	e0c32097 	smull	r2, r3, r7, r0
     29c:	e0833000 	add	r3, r3, r0
     2a0:	e1a02fc0 	asr	r2, r0, #31
     2a4:	e06237c3 	rsb	r3, r2, r3, asr #15
     2a8:	e0633803 	rsb	r3, r3, r3, lsl #16
     2ac:	e0630000 	rsb	r0, r3, r0
     2b0:	e19620b4 	ldrh	r2, [r6, r4]
     2b4:	e2422cff 	sub	r2, r2, #65280	; 0xff00
     2b8:	e24220ff 	sub	r2, r2, #255	; 0xff
     2bc:	e1700002 	cmn	r0, r2
     2c0:	41a0300a 	movmi	r3, r10
     2c4:	51a03008 	movpl	r3, r8
     2c8:	e5a53004 	str	r3, [r5, #4]!
     2cc:	e2844002 	add	r4, r4, #2
								7,1,5,3};
	int total, current;
	int x,y,z,k;
	for (x=0; x<VGA_Y_SIZE; x++) 
	{
    	for (y=0; y<VGA_X_SIZE; y++) 
     2d0:	e3540d0a 	cmp	r4, #640	; 0x280
     2d4:	1affffee 	bne	294 <noiseDitherFilter+0x2c>
     2d8:	e28bbc05 	add	r11, r11, #1280	; 0x500
     2dc:	e2899d0a 	add	r9, r9, #640	; 0x280
	int16_t neighbors[3][4] = {0,1,1,1,
								1,-1,0,1,
								7,1,5,3};
	int total, current;
	int x,y,z,k;
	for (x=0; x<VGA_Y_SIZE; x++) 
     2e0:	e3590b96 	cmp	r9, #153600	; 0x25800
     2e4:	0a000004 	beq	2fc <noiseDitherFilter+0x94>
uint16_t min(uint16_t a, uint16_t b)
{
	return (a > b) ? b : a;
}

void noiseDitherFilter(uint16_t image_map[][320],float output[][320])
     2e8:	e59d3004 	ldr	r3, [sp, #4]
     2ec:	e0836009 	add	r6, r3, r9
     2f0:	e24b5004 	sub	r5, r11, #4
     2f4:	e3a04000 	mov	r4, #0
     2f8:	eaffffe5 	b	294 <noiseDitherFilter+0x2c>
		{
			output[x][y] = (rand() % 0xFFFF - (0xFFFF-image_map[x][y])) < 0 ? 0x0000 : 0xFFFF;
    	}
    }

}
     2fc:	e28dd00c 	add	sp, sp, #12
     300:	e8bd8ff0 	pop	{r4, r5, r6, r7, r8, r9, r10, r11, pc}

00000304 <ditherFilter>:

void ditherFilter(uint16_t image_map[][320],float output[][320])
{
     304:	e92d4ff0 	push	{r4, r5, r6, r7, r8, r9, r10, r11, lr}
     308:	e24ddb96 	sub	sp, sp, #153600	; 0x25800
     30c:	e24dd074 	sub	sp, sp, #116	; 0x74
     310:	e1a06001 	mov	r6, r1
    	}
    }

}

void ditherFilter(uint16_t image_map[][320],float output[][320])
     314:	e3a05000 	mov	r5, #0
     318:	e1a01005 	mov	r1, r5
     31c:	ea000008 	b	344 <ditherFilter+0x40>
     320:	e28d7070 	add	r7, sp, #112	; 0x70
	int i,j;
	for(i=0;i<240;i++)
	{
	for(j=0;j<320;j++)
	{
			image_map2[i][j]=image_map[i][j];
     324:	e19420b3 	ldrh	r2, [r4, r3]
     328:	e18c20b3 	strh	r2, [r12, r3]
     32c:	e2833002 	add	r3, r3, #2
{
	uint16_t image_map2[240][320];
	int i,j;
	for(i=0;i<240;i++)
	{
	for(j=0;j<320;j++)
     330:	e3530d0a 	cmp	r3, #640	; 0x280
     334:	1afffff9 	bne	320 <ditherFilter+0x1c>
     338:	e2855d0a 	add	r5, r5, #640	; 0x280

void ditherFilter(uint16_t image_map[][320],float output[][320])
{
	uint16_t image_map2[240][320];
	int i,j;
	for(i=0;i<240;i++)
     33c:	e3550b96 	cmp	r5, #153600	; 0x25800
     340:	0a000004 	beq	358 <ditherFilter+0x54>
    	}
    }

}

void ditherFilter(uint16_t image_map[][320],float output[][320])
     344:	e0804005 	add	r4, r0, r5
     348:	e1a03001 	mov	r3, r1
     34c:	e28d2070 	add	r2, sp, #112	; 0x70
     350:	e085c002 	add	r12, r5, r2
     354:	eafffff1 	b	320 <ditherFilter+0x1c>
     358:	e58d7024 	str	r7, [sp, #36]	; 0x24
	for(j=0;j<320;j++)
	{
			image_map2[i][j]=image_map[i][j];
	}
	}
	uint16_t shifts[3] = {11,5,0};
     35c:	e30a37f8 	movw	r3, #43000	; 0xa7f8
     360:	e34f3ffd 	movt	r3, #65533	; 0xfffd
     364:	e3045d94 	movw	r5, #19860	; 0x4d94
     368:	e3405000 	movt	r5, #0
     36c:	e5950000 	ldr	r0, [r5]
     370:	e28d4b96 	add	r4, sp, #153600	; 0x25800
     374:	e2844070 	add	r4, r4, #112	; 0x70
     378:	e7840003 	str	r0, [r4, r3]
     37c:	e1d530b4 	ldrh	r3, [r5, #4]
     380:	e1cd36bc 	strh	r3, [sp, #108]	; 0x6c
	uint16_t rgbErrors[3] = {0,0,0};
	uint16_t mymask[3] = {0xF800,0x07E0,0x001F};
     384:	e30a27f0 	movw	r2, #42992	; 0xa7f0
     388:	e34f2ffd 	movt	r2, #65533	; 0xfffd
     38c:	e1a03005 	mov	r3, r5
     390:	e5b30008 	ldr	r0, [r3, #8]!
     394:	e7840002 	str	r0, [r4, r2]
     398:	e1d330b4 	ldrh	r3, [r3, #4]
     39c:	e1cd36b4 	strh	r3, [sp, #100]	; 0x64
	uint16_t current_pixel;
	uint16_t currentRGB[3] = {0,0,0};
     3a0:	e30a27e8 	movw	r2, #42984	; 0xa7e8
     3a4:	e34f2ffd 	movt	r2, #65533	; 0xfffd
     3a8:	e3a04000 	mov	r4, #0
     3ac:	e28d3b96 	add	r3, sp, #153600	; 0x25800
     3b0:	e2833070 	add	r3, r3, #112	; 0x70
     3b4:	e1a340b2 	strh	r4, [r3, r2]!
     3b8:	e1c340b2 	strh	r4, [r3, #2]
     3bc:	e1c340b4 	strh	r4, [r3, #4]
	uint16_t neighbourRGB[3] = {0,0,0};
     3c0:	e30a27e0 	movw	r2, #42976	; 0xa7e0
     3c4:	e34f2ffd 	movt	r2, #65533	; 0xfffd
     3c8:	e28d3b96 	add	r3, sp, #153600	; 0x25800
     3cc:	e2833070 	add	r3, r3, #112	; 0x70
     3d0:	e1a340b2 	strh	r4, [r3, r2]!
     3d4:	e1c340b2 	strh	r4, [r3, #2]
     3d8:	e1c340b4 	strh	r4, [r3, #4]
	uint16_t trial_error=0;
	uint8_t final_dec = 0x00;
	uint16_t real_errorRGB[3];
	int16_t neighbors[3][4] = {0,1,1,1,
     3dc:	e28dc030 	add	r12, sp, #48	; 0x30
     3e0:	e5b50010 	ldr	r0, [r5, #16]!
     3e4:	e5951004 	ldr	r1, [r5, #4]
     3e8:	e5952008 	ldr	r2, [r5, #8]
     3ec:	e595300c 	ldr	r3, [r5, #12]
     3f0:	e8ac000f 	stmia	r12!, {r0, r1, r2, r3}
     3f4:	e5950010 	ldr	r0, [r5, #16]
     3f8:	e5951014 	ldr	r1, [r5, #20]
     3fc:	e8ac0003 	stmia	r12!, {r0, r1}
     400:	e58d602c 	str	r6, [sp, #44]	; 0x2c
								1,-1,0,1,
								7,1,5,3};
	int total, current;
	int x,y,z,k;
	for (x=0; x<VGA_Y_SIZE; x++) 
     404:	e1a08004 	mov	r8, r4
				for(k=0;k<sizeof(shifts)/sizeof(uint16_t);k++)
				{
					neighbourRGB[k] = ((image_map2[x+neighbors[0][z]][y+neighbors[1][z]] & mymask[k]) >> shifts[k]);
					neighbourRGB[k] += current*real_errorRGB[k]/64;
				}
				image_map2[x+neighbors[0][z]][y+neighbors[1][z]] = ((neighbourRGB[0] << shifts[0]) & mymask[0])|((neighbourRGB[1] << shifts[1]) & mymask[1])|((neighbourRGB[2] << shifts[2]) & mymask[2]);
     408:	e30a97e0 	movw	r9, #42976	; 0xa7e0
     40c:	e34f9ffd 	movt	r9, #65533	; 0xfffd
     410:	e58d9018 	str	r9, [sp, #24]
     414:	e28dab96 	add	r10, sp, #153600	; 0x25800
     418:	e28aa070 	add	r10, r10, #112	; 0x70
     41c:	e08aa009 	add	r10, r10, r9
     420:	e58da00c 	str	r10, [sp, #12]
     424:	e30a47f8 	movw	r4, #43000	; 0xa7f8
     428:	e34f4ffd 	movt	r4, #65533	; 0xfffd
     42c:	e58d401c 	str	r4, [sp, #28]
     430:	e28d9b96 	add	r9, sp, #153600	; 0x25800
     434:	e2899070 	add	r9, r9, #112	; 0x70
     438:	e0899004 	add	r9, r9, r4
     43c:	e58d9010 	str	r9, [sp, #16]
     440:	ea000096 	b	6a0 <ditherFilter+0x39c>
     444:	e2877001 	add	r7, r7, #1
     448:	e59da008 	ldr	r10, [sp, #8]
     44c:	e28aa001 	add	r10, r10, #1
     450:	e58da008 	str	r10, [sp, #8]
     454:	e1a06007 	mov	r6, r7
	for (x=0; x<VGA_Y_SIZE; x++) 
	{
    	for (y=0; y<VGA_X_SIZE; y++) 
		{
			
			if((x == VGA_Y_SIZE-1) || (y == VGA_X_SIZE-1) || (y == 0))
     458:	e300313f 	movw	r3, #319	; 0x13f
     45c:	e35800ef 	cmp	r8, #239	; 0xef
     460:	11570003 	cmpne	r7, r3
     464:	0a000081 	beq	670 <ditherFilter+0x36c>
     468:	e3570000 	cmp	r7, #0
     46c:	0afffff4 	beq	444 <ditherFilter+0x140>
    	}
    }

}

void ditherFilter(uint16_t image_map[][320],float output[][320])
     470:	e1a03087 	lsl	r3, r7, #1
			}
			current_pixel = image_map2[x][y];
			trial_error = 0;
			for(z=0;z<sizeof(shifts)/sizeof(uint16_t);z++)
			{
				currentRGB[z] = ((image_map2[x][y] & mymask[z]) >> shifts[z]);
     474:	e59d4024 	ldr	r4, [sp, #36]	; 0x24
     478:	e194c0b3 	ldrh	r12, [r4, r3]
     47c:	e3a03000 	mov	r3, #0
     480:	e28d2058 	add	r2, sp, #88	; 0x58
     484:	e28d1060 	add	r1, sp, #96	; 0x60
     488:	e19310b1 	ldrh	r1, [r3, r1]
     48c:	e00c1001 	and	r1, r12, r1
     490:	e28d0068 	add	r0, sp, #104	; 0x68
     494:	e19300b0 	ldrh	r0, [r3, r0]
     498:	e1a01051 	asr	r1, r1, r0
     49c:	e18310b2 	strh	r1, [r3, r2]
     4a0:	e2833002 	add	r3, r3, #2
			{
				continue; 
			}
			current_pixel = image_map2[x][y];
			trial_error = 0;
			for(z=0;z<sizeof(shifts)/sizeof(uint16_t);z++)
     4a4:	e3530006 	cmp	r3, #6
     4a8:	1afffff4 	bne	480 <ditherFilter+0x17c>
			for(z=0;z<sizeof(shifts)/sizeof(uint16_t);z++)
			{
				switch (z)
				{
					case 1:
						trial_error += currentRGB[z]/2;
     4ac:	e1dd05ba 	ldrh	r0, [sp, #90]	; 0x5a
     4b0:	e1a000a0 	lsr	r0, r0, #1
     4b4:	e3a02001 	mov	r2, #1
     4b8:	e3a03000 	mov	r3, #0
     4bc:	e1a04003 	mov	r4, r3
     4c0:	ea000001 	b	4cc <ditherFilter+0x1c8>
     4c4:	e2833001 	add	r3, r3, #1
     4c8:	e2822001 	add	r2, r2, #1
			{
				currentRGB[z] = ((image_map2[x][y] & mymask[z]) >> shifts[z]);
			}
			for(z=0;z<sizeof(shifts)/sizeof(uint16_t);z++)
			{
				switch (z)
     4cc:	e3530001 	cmp	r3, #1
				{
					case 1:
						trial_error += currentRGB[z]/2;
     4d0:	00844000 	addeq	r4, r4, r0
     4d4:	06ff4074 	uxtheq	r4, r4
			{
				currentRGB[z] = ((image_map2[x][y] & mymask[z]) >> shifts[z]);
			}
			for(z=0;z<sizeof(shifts)/sizeof(uint16_t);z++)
			{
				switch (z)
     4d8:	0afffff9 	beq	4c4 <ditherFilter+0x1c0>
    	}
    }

}

void ditherFilter(uint16_t image_map[][320],float output[][320])
     4dc:	e28da070 	add	r10, sp, #112	; 0x70
     4e0:	e08a1083 	add	r1, r10, r3, lsl #1
				{
					case 1:
						trial_error += currentRGB[z]/2;
						break;
					default:
						trial_error += currentRGB[z];
     4e4:	e15111b8 	ldrh	r1, [r1, #-24]	; 0xffffffe8
     4e8:	e0844001 	add	r4, r4, r1
     4ec:	e6ff4074 	uxth	r4, r4
			trial_error = 0;
			for(z=0;z<sizeof(shifts)/sizeof(uint16_t);z++)
			{
				currentRGB[z] = ((image_map2[x][y] & mymask[z]) >> shifts[z]);
			}
			for(z=0;z<sizeof(shifts)/sizeof(uint16_t);z++)
     4f0:	e3520002 	cmp	r2, #2
     4f4:	9afffff2 	bls	4c4 <ditherFilter+0x1c0>
						break;
					default:
						trial_error += currentRGB[z];
				}
			}
			final_dec = trial_error > 51 ? 0xFF : 0x00;
     4f8:	e3540033 	cmp	r4, #51	; 0x33
     4fc:	83a040ff 	movhi	r4, #255	; 0xff
     500:	93a04000 	movls	r4, #0
			output[x][y] = (final_dec << 8) | final_dec;
     504:	e1840404 	orr	r0, r4, r4, lsl #8
     508:	eb000bc8 	bl	3430 <__aeabi_i2f>
     50c:	e59d9028 	ldr	r9, [sp, #40]	; 0x28
     510:	e7890107 	str	r0, [r9, r7, lsl #2]
     514:	e3a03000 	mov	r3, #0
			for(z=0;z<sizeof(shifts)/sizeof(uint16_t);z++)
			{
	 			real_errorRGB[z] = currentRGB[z] - ((final_dec != 0) ? 255 : 0);
     518:	e28d2058 	add	r2, sp, #88	; 0x58
     51c:	e19300b2 	ldrh	r0, [r3, r2]
     520:	e3540000 	cmp	r4, #0
     524:	13a010ff 	movne	r1, #255	; 0xff
     528:	03a01000 	moveq	r1, #0
     52c:	e28d2048 	add	r2, sp, #72	; 0x48
     530:	e0611000 	rsb	r1, r1, r0
     534:	e18310b2 	strh	r1, [r3, r2]
     538:	e2833002 	add	r3, r3, #2
						trial_error += currentRGB[z];
				}
			}
			final_dec = trial_error > 51 ? 0xFF : 0x00;
			output[x][y] = (final_dec << 8) | final_dec;
			for(z=0;z<sizeof(shifts)/sizeof(uint16_t);z++)
     53c:	e3530006 	cmp	r3, #6
     540:	1afffff4 	bne	518 <ditherFilter+0x214>
     544:	e28d4030 	add	r4, sp, #48	; 0x30
     548:	e3a05000 	mov	r5, #0
     54c:	e3a0a010 	mov	r10, #16
				for(k=0;k<sizeof(shifts)/sizeof(uint16_t);k++)
				{
					neighbourRGB[k] = ((image_map2[x+neighbors[0][z]][y+neighbors[1][z]] & mymask[k]) >> shifts[k]);
					neighbourRGB[k] += current*real_errorRGB[k]/64;
				}
				image_map2[x+neighbors[0][z]][y+neighbors[1][z]] = ((neighbourRGB[0] << shifts[0]) & mymask[0])|((neighbourRGB[1] << shifts[1]) & mymask[1])|((neighbourRGB[2] << shifts[2]) & mymask[2]);
     550:	e30a97f0 	movw	r9, #42992	; 0xa7f0
     554:	e34f9ffd 	movt	r9, #65533	; 0xfffd
     558:	e58d9014 	str	r9, [sp, #20]
     55c:	e58d7020 	str	r7, [sp, #32]
     560:	e1a0700a 	mov	r7, r10
	 			real_errorRGB[z] = currentRGB[z] - ((final_dec != 0) ? 255 : 0);
			}
			total = 16;
			for(z=0;z<sizeof(neighbors[0])/sizeof(neighbors[0][0]);z++)
			{
				current = rand()%total;
     564:	eb000f8f 	bl	43a8 <rand>
				if (z == sizeof(neighbors[0])/sizeof(neighbors[0][0])-1)
     568:	e3550003 	cmp	r5, #3
     56c:	01a01007 	moveq	r1, r7
     570:	0a000050 	beq	6b8 <ditherFilter+0x3b4>
	 			real_errorRGB[z] = currentRGB[z] - ((final_dec != 0) ? 255 : 0);
			}
			total = 16;
			for(z=0;z<sizeof(neighbors[0])/sizeof(neighbors[0][0]);z++)
			{
				current = rand()%total;
     574:	e1a01007 	mov	r1, r7
     578:	eb0008d9 	bl	28e4 <__aeabi_idivmod>
				{
					current = total;
				}
				else
				{
					total -= current;
     57c:	e0617007 	rsb	r7, r1, r7
     580:	ea00004c 	b	6b8 <ditherFilter+0x3b4>
				}
				/*printf("%d\n",current);*/
				for(k=0;k<sizeof(shifts)/sizeof(uint16_t);k++)
				{
					neighbourRGB[k] = ((image_map2[x+neighbors[0][z]][y+neighbors[1][z]] & mymask[k]) >> shifts[k]);
					neighbourRGB[k] += current*real_errorRGB[k]/64;
     584:	e28da070 	add	r10, sp, #112	; 0x70
     588:	e28d0050 	add	r0, sp, #80	; 0x50
     58c:	e28d2048 	add	r2, sp, #72	; 0x48
     590:	e19320b2 	ldrh	r2, [r3, r2]
     594:	e0020291 	mul	r2, r1, r2
     598:	e282c03f 	add	r12, r2, #63	; 0x3f
     59c:	e3520000 	cmp	r2, #0
     5a0:	b1a0200c 	movlt	r2, r12
					total -= current;
				}
				/*printf("%d\n",current);*/
				for(k=0;k<sizeof(shifts)/sizeof(uint16_t);k++)
				{
					neighbourRGB[k] = ((image_map2[x+neighbors[0][z]][y+neighbors[1][z]] & mymask[k]) >> shifts[k]);
     5a4:	e28dc060 	add	r12, sp, #96	; 0x60
     5a8:	e193c0bc 	ldrh	r12, [r3, r12]
     5ac:	e009c00c 	and	r12, r9, r12
     5b0:	e24aa008 	sub	r10, r10, #8
     5b4:	e193a0ba 	ldrh	r10, [r3, r10]
     5b8:	e1a0ca5c 	asr	r12, r12, r10
					neighbourRGB[k] += current*real_errorRGB[k]/64;
     5bc:	e08c2342 	add	r2, r12, r2, asr #6
     5c0:	e18320b0 	strh	r2, [r3, r0]
     5c4:	e2833002 	add	r3, r3, #2
				else
				{
					total -= current;
				}
				/*printf("%d\n",current);*/
				for(k=0;k<sizeof(shifts)/sizeof(uint16_t);k++)
     5c8:	e3530006 	cmp	r3, #6
     5cc:	1affffec 	bne	584 <ditherFilter+0x280>
     5d0:	e59d4004 	ldr	r4, [sp, #4]
				{
					neighbourRGB[k] = ((image_map2[x+neighbors[0][z]][y+neighbors[1][z]] & mymask[k]) >> shifts[k]);
					neighbourRGB[k] += current*real_errorRGB[k]/64;
				}
				image_map2[x+neighbors[0][z]][y+neighbors[1][z]] = ((neighbourRGB[0] << shifts[0]) & mymask[0])|((neighbourRGB[1] << shifts[1]) & mymask[1])|((neighbourRGB[2] << shifts[2]) & mymask[2]);
     5d4:	e1db30f0 	ldrsh	r3, [r11]
     5d8:	e0833008 	add	r3, r3, r8
     5dc:	e1db20f8 	ldrsh	r2, [r11, #8]
     5e0:	e0833103 	add	r3, r3, r3, lsl #2
     5e4:	e0863303 	add	r3, r6, r3, lsl #6
     5e8:	e0833002 	add	r3, r3, r2
     5ec:	e28dcb96 	add	r12, sp, #153600	; 0x25800
     5f0:	e28cc070 	add	r12, r12, #112	; 0x70
     5f4:	e08c3083 	add	r3, r12, r3, lsl #1
     5f8:	e2433b96 	sub	r3, r3, #153600	; 0x25800
     5fc:	e59d900c 	ldr	r9, [sp, #12]
     600:	e1d910b2 	ldrh	r1, [r9, #2]
     604:	e59da010 	ldr	r10, [sp, #16]
     608:	e1da20b2 	ldrh	r2, [r10, #2]
     60c:	e1dd06b2 	ldrh	r0, [sp, #98]	; 0x62
     610:	e0001211 	and	r1, r0, r1, lsl r2
     614:	e59d9018 	ldr	r9, [sp, #24]
     618:	e19cc0b9 	ldrh	r12, [r12, r9]
     61c:	e28d0b96 	add	r0, sp, #153600	; 0x25800
     620:	e2800070 	add	r0, r0, #112	; 0x70
     624:	e59da01c 	ldr	r10, [sp, #28]
     628:	e19020ba 	ldrh	r2, [r0, r10]
     62c:	e59d9014 	ldr	r9, [sp, #20]
     630:	e19000b9 	ldrh	r0, [r0, r9]
     634:	e000221c 	and	r2, r0, r12, lsl r2
     638:	e1811002 	orr	r1, r1, r2
     63c:	e59da00c 	ldr	r10, [sp, #12]
     640:	e1dac0b4 	ldrh	r12, [r10, #4]
     644:	e59d9010 	ldr	r9, [sp, #16]
     648:	e1d920b4 	ldrh	r2, [r9, #4]
     64c:	e1dd06b4 	ldrh	r0, [sp, #100]	; 0x64
     650:	e000221c 	and	r2, r0, r12, lsl r2
     654:	e1812002 	orr	r2, r1, r2
     658:	e1c320b0 	strh	r2, [r3]
			for(z=0;z<sizeof(shifts)/sizeof(uint16_t);z++)
			{
	 			real_errorRGB[z] = currentRGB[z] - ((final_dec != 0) ? 255 : 0);
			}
			total = 16;
			for(z=0;z<sizeof(neighbors[0])/sizeof(neighbors[0][0]);z++)
     65c:	e2855001 	add	r5, r5, #1
     660:	e2844002 	add	r4, r4, #2
     664:	e3550004 	cmp	r5, #4
     668:	1affffbd 	bne	564 <ditherFilter+0x260>
     66c:	e59d7020 	ldr	r7, [sp, #32]
								7,1,5,3};
	int total, current;
	int x,y,z,k;
	for (x=0; x<VGA_Y_SIZE; x++) 
	{
    	for (y=0; y<VGA_X_SIZE; y++) 
     670:	e59da008 	ldr	r10, [sp, #8]
     674:	e35a0d05 	cmp	r10, #320	; 0x140
     678:	baffff71 	blt	444 <ditherFilter+0x140>
	int16_t neighbors[3][4] = {0,1,1,1,
								1,-1,0,1,
								7,1,5,3};
	int total, current;
	int x,y,z,k;
	for (x=0; x<VGA_Y_SIZE; x++) 
     67c:	e2888001 	add	r8, r8, #1
     680:	e59d402c 	ldr	r4, [sp, #44]	; 0x2c
     684:	e2844c05 	add	r4, r4, #1280	; 0x500
     688:	e58d402c 	str	r4, [sp, #44]	; 0x2c
     68c:	e59d9024 	ldr	r9, [sp, #36]	; 0x24
     690:	e2899d0a 	add	r9, r9, #640	; 0x280
     694:	e58d9024 	str	r9, [sp, #36]	; 0x24
     698:	e35800f0 	cmp	r8, #240	; 0xf0
     69c:	0a000014 	beq	6f4 <ditherFilter+0x3f0>
					default:
						trial_error += currentRGB[z];
				}
			}
			final_dec = trial_error > 51 ? 0xFF : 0x00;
			output[x][y] = (final_dec << 8) | final_dec;
     6a0:	e59da02c 	ldr	r10, [sp, #44]	; 0x2c
     6a4:	e58da028 	str	r10, [sp, #40]	; 0x28
     6a8:	e3a04001 	mov	r4, #1
     6ac:	e58d4008 	str	r4, [sp, #8]
     6b0:	e3a07000 	mov	r7, #0
     6b4:	eaffff66 	b	454 <ditherFilter+0x150>
    	}
    }

}

void ditherFilter(uint16_t image_map[][320],float output[][320])
     6b8:	e1a0b004 	mov	r11, r4
					total -= current;
				}
				/*printf("%d\n",current);*/
				for(k=0;k<sizeof(shifts)/sizeof(uint16_t);k++)
				{
					neighbourRGB[k] = ((image_map2[x+neighbors[0][z]][y+neighbors[1][z]] & mymask[k]) >> shifts[k]);
     6bc:	e1d430f0 	ldrsh	r3, [r4]
     6c0:	e0833008 	add	r3, r3, r8
     6c4:	e1d420f8 	ldrsh	r2, [r4, #8]
     6c8:	e0833103 	add	r3, r3, r3, lsl #2
     6cc:	e0863303 	add	r3, r6, r3, lsl #6
     6d0:	e0833002 	add	r3, r3, r2
     6d4:	e28d9b96 	add	r9, sp, #153600	; 0x25800
     6d8:	e2899070 	add	r9, r9, #112	; 0x70
     6dc:	e0893083 	add	r3, r9, r3, lsl #1
     6e0:	e2433b96 	sub	r3, r3, #153600	; 0x25800
     6e4:	e1d390b0 	ldrh	r9, [r3]
     6e8:	e3a03000 	mov	r3, #0
     6ec:	e58d4004 	str	r4, [sp, #4]
     6f0:	eaffffa3 	b	584 <ditherFilter+0x280>
				}
				image_map2[x+neighbors[0][z]][y+neighbors[1][z]] = ((neighbourRGB[0] << shifts[0]) & mymask[0])|((neighbourRGB[1] << shifts[1]) & mymask[1])|((neighbourRGB[2] << shifts[2]) & mymask[2]);
			}
    	}
    }
}
     6f4:	e28dd074 	add	sp, sp, #116	; 0x74
     6f8:	e28ddb96 	add	sp, sp, #153600	; 0x25800
     6fc:	e8bd8ff0 	pop	{r4, r5, r6, r7, r8, r9, r10, r11, pc}

00000700 <sound>:

void sound() 
{
     700:	e92d48f0 	push	{r4, r5, r6, r7, r11, lr}
     704:	e28db014 	add	r11, sp, #20
     708:	e24dda7f 	sub	sp, sp, #520192	; 0x7f000
